target datalayout = "e-m:e-p270:32:32-p271:32:32-p272:64:64-i64:64-i128:128-f80:128-n8:16:32:64-S128"
target triple = "x86_64-pc-linux-gnu"

; Function Attrs: nounwind uwtable
define hidden double @luaV_modf(ptr noundef %0, double noundef %1, double noundef %2) #0 {
  %4 = alloca ptr, align 8
  %5 = alloca double, align 8
  %6 = alloca double, align 8
  %7 = alloca double, align 8
  store ptr %0, ptr %4, align 8, !tbaa !32
  store double %1, ptr %5, align 8, !tbaa !14
  store double %2, ptr %6, align 8, !tbaa !14
  call void @llvm.lifetime.start.p0(i64 8, ptr %7) #10
  %8 = load double, ptr %5, align 8, !tbaa !14
  %9 = load double, ptr %6, align 8, !tbaa !14
  %10 = call double @fmod(double noundef %8, double noundef %9) #10, !tbaa !29
  store double %10, ptr %7, align 8, !tbaa !14
  %11 = load double, ptr %7, align 8, !tbaa !14
  %12 = fcmp ogt double %11, 0.000000e+00
  br i1 %12, label %13, label %16

13:                                               ; preds = %3
  %14 = load double, ptr %6, align 8, !tbaa !14
  %15 = fcmp olt double %14, 0.000000e+00
  br i1 %15, label %22, label %26

16:                                               ; preds = %3
  %17 = load double, ptr %7, align 8, !tbaa !14
  %18 = fcmp olt double %17, 0.000000e+00
  br i1 %18, label %19, label %26

19:                                               ; preds = %16
  %20 = load double, ptr %6, align 8, !tbaa !14
  %21 = fcmp ogt double %20, 0.000000e+00
  br i1 %21, label %22, label %26

22:                                               ; preds = %19, %13
  %23 = load double, ptr %6, align 8, !tbaa !14
  %24 = load double, ptr %7, align 8, !tbaa !14
  %25 = fadd double %24, %23
  store double %25, ptr %7, align 8, !tbaa !14
  br label %26

26:                                               ; preds = %22, %19, %16, %13
  %27 = load double, ptr %7, align 8, !tbaa !14
  call void @llvm.lifetime.end.p0(i64 8, ptr %7) #10
  ret double %27
}