; Function Attrs: mustprogress nofree nounwind willreturn memory(write) uwtable
define hidden double @luaV_modf(ptr noundef readnone captures(none) %0, double noundef %1, double noundef %2) local_unnamed_addr #8 {
  %4 = tail call double @fmod(double noundef %1, double noundef %2) #13, !tbaa !46
  %5 = fcmp ogt double %4, 0.000000e+00
  br i1 %5, label %6, label %8

6:                                                ; preds = %3
  %7 = fcmp olt double %2, 0.000000e+00
  br i1 %7, label %11, label %13

8:                                                ; preds = %3
  %9 = fcmp olt double %4, 0.000000e+00
  %10 = fcmp ogt double %2, 0.000000e+00
  %or.cond = and i1 %10, %9
  br i1 %or.cond, label %11, label %13

11:                                               ; preds = %8, %6
  %12 = fadd double %2, %4
  br label %13

13:                                               ; preds = %11, %8, %6
  %.0 = phi double [ %12, %11 ], [ %4, %6 ], [ %4, %8 ]
  ret double %.0
}